target datalayout = "e-m:e-p270:32:32-p271:32:32-p272:64:64-i64:64-i128:128-f80:128-n8:16:32:64-S128"
target triple = "x86_64-pc-linux-gnu"

@.str.4 = private unnamed_addr constant [2 x i8] c"\0A\00", align 1
@.str.5 = private unnamed_addr constant [38 x i8] c"    splitcells [options] [selection]\0A\00", align 1
@.str.6 = private unnamed_addr constant [80 x i8] c"This command splits multi-bit cells into smaller chunks, based on usage of the\0A\00", align 1
@.str.7 = private unnamed_addr constant [19 x i8] c"cell output bits.\0A\00", align 1
@.str.8 = private unnamed_addr constant [82 x i8] c"This command operates only in cells such as $or, $and, and $mux, that are easily\0A\00", align 1
@.str.9 = private unnamed_addr constant [22 x i8] c"cut into bit-slices.\0A\00", align 1
@.str.10 = private unnamed_addr constant [33 x i8] c"    -format char1[char2[char3]]\0A\00", align 1
@.str.11 = private unnamed_addr constant [81 x i8] c"        the first char is inserted between the cell name and the bit index, the\0A\00", align 1
@.str.12 = private unnamed_addr constant [80 x i8] c"        second char is appended to the cell name. e.g. -format () creates cell\0A\00", align 1
@.str.13 = private unnamed_addr constant [76 x i8] c"        names like 'mycell(42)'. the 3rd character is the range separation\0A\00", align 1
@.str.14 = private unnamed_addr constant [72 x i8] c"        character when creating multi-bit cells. the default is '[]:'.\0A\00", align 1

; Function Attrs: mustprogress uwtable
define internal void @_ZN12_GLOBAL__N_114SplitcellsPass4helpEv(ptr noundef nonnull align 8 dereferenceable(104) %0) unnamed_addr #4 align 2 {
  %2 = alloca ptr, align 8
  store ptr %0, ptr %2, align 8, !tbaa !6
  call void (ptr, ...) @_ZN5Yosys3logEPKcz(ptr noundef @.str.4)
  call void (ptr, ...) @_ZN5Yosys3logEPKcz(ptr noundef @.str.5)
  call void (ptr, ...) @_ZN5Yosys3logEPKcz(ptr noundef @.str.4)
  call void (ptr, ...) @_ZN5Yosys3logEPKcz(ptr noundef @.str.6)
  call void (ptr, ...) @_ZN5Yosys3logEPKcz(ptr noundef @.str.7)
  call void (ptr, ...) @_ZN5Yosys3logEPKcz(ptr noundef @.str.4)
  call void (ptr, ...) @_ZN5Yosys3logEPKcz(ptr noundef @.str.8)
  call void (ptr, ...) @_ZN5Yosys3logEPKcz(ptr noundef @.str.9)
  call void (ptr, ...) @_ZN5Yosys3logEPKcz(ptr noundef @.str.4)
  call void (ptr, ...) @_ZN5Yosys3logEPKcz(ptr noundef @.str.10)
  call void (ptr, ...) @_ZN5Yosys3logEPKcz(ptr noundef @.str.11)
  call void (ptr, ...) @_ZN5Yosys3logEPKcz(ptr noundef @.str.12)
  call void (ptr, ...) @_ZN5Yosys3logEPKcz(ptr noundef @.str.13)
  call void (ptr, ...) @_ZN5Yosys3logEPKcz(ptr noundef @.str.14)
  call void (ptr, ...) @_ZN5Yosys3logEPKcz(ptr noundef @.str.4)
  ret void
}